; Function Attrs: mustprogress uwtable
define void @_ZN6icu_7522TransliteratorIDParser4initER10UErrorCode(ptr noundef nonnull align 4 dereferenceable(4) %status) local_unnamed_addr #1 align 2 personality ptr @__gxx_personality_v0 {
entry:
  tail call void @ucln_i18n_registerCleanup_75(i32 noundef 5, ptr noundef nonnull @utrans_transliterator_cleanup_75)
  %call = tail call noundef ptr @_ZN6icu_757UMemorynwEm(i64 noundef 88) #9
  %new.isnull = icmp eq ptr %call, null
  br i1 %new.isnull, label %if.then, label %new.notnull

new.notnull:                                      ; preds = %entry
  store ptr null, ptr %call, align 8
  %0 = load i32, ptr %status, align 4
  %cmp.i.i.i = icmp slt i32 %0, 1
  br i1 %cmp.i.i.i, label %if.end.i.i, label %if.end

if.end.i.i:                                       ; preds = %new.notnull
  %hashObj.i.i = getelementptr inbounds i8, ptr %call, i64 8
  %call2.i.i2 = invoke ptr @uhash_init_75(ptr noundef nonnull %hashObj.i.i, ptr noundef nonnull @uhash_hashCaselessUnicodeString_75, ptr noundef nonnull @uhash_compareCaselessUnicodeString_75, ptr noundef null, ptr noundef nonnull %status)
          to label %call2.i.i.noexc unwind label %lpad

call2.i.i.noexc:                                  ; preds = %if.end.i.i
  %1 = load i32, ptr %status, align 4
  %cmp.i3.i.i = icmp sgt i32 %1, 0
  br i1 %cmp.i3.i.i, label %if.end, label %if.then5.i.i

if.then5.i.i:                                     ; preds = %call2.i.i.noexc
  store ptr %hashObj.i.i, ptr %call, align 8
  %call8.i.i3 = invoke ptr @uhash_setKeyDeleter_75(ptr noundef nonnull %hashObj.i.i, ptr noundef nonnull @uprv_deleteUObject_75)
          to label %if.end unwind label %lpad

if.then:                                          ; preds = %entry
  store ptr null, ptr @_ZN6icu_75L16SPECIAL_INVERSESE, align 8
  store i32 7, ptr %status, align 4
  br label %return

lpad:                                             ; preds = %if.then5.i.i, %if.end.i.i
  %2 = landingpad { ptr, i32 }
          cleanup
  tail call void @_ZN6icu_757UMemorydlEPv(ptr noundef nonnull %call) #9
  resume { ptr, i32 } %2

if.end:                                           ; preds = %if.then5.i.i, %new.notnull, %call2.i.i.noexc
  store ptr %call, ptr @_ZN6icu_75L16SPECIAL_INVERSESE, align 8
  %3 = load ptr, ptr %call, align 8
  %call.i = tail call noundef ptr @uhash_setValueDeleter_75(ptr noundef %3, ptr noundef nonnull @uprv_deleteUObject_75)
  br label %return

return:                                           ; preds = %if.end, %if.then
  ret void
}